(iConfigParser
RawConfigParser
p0
(dp1
S'_optcre'
p2
cre
_compile
p3
(S'(?P<option>[^:=\\s][^:=]*)\\s*(?P<vi>[:=])\\s*(?P<value>.*)$'
p4
I0
tp5
Rp6
sS'_defaults'
p7
ccollections
OrderedDict
p8
((lp9
tp10
Rp11
sS'_sections'
p12
g8
((lp13
(lp14
S'main'
p15
ag8
((lp16
(lp17
S'__name__'
p18
ag15
aa(lp19
S'repos'
p20
aS'/home/user/work/awfy/repos'
p21
aa(lp22
S'benchmarks'
p23
aS'/home/user/work/awfy/benchmarks'
p24
aa(lp25
S'cpu'
p26
aS'x64'
p27
aa(lp28
S'machine'
p29
aS'0'
p30
aa(lp31
S'updateurl'
p32
aS'http://user-awfy.sh.intel.com/awfy/UPDATE.php'
p33
aa(lp34
S'slaves'
p35
aS'slm,hsw'
p36
aatp37
Rp38
aa(lp39
S'native'
p40
ag8
((lp41
(lp42
g18
ag40
aa(lp43
S'options'
p44
aS'-O2'
p45
aa(lp46
S'cc'
p47
aS'gcc'
p48
aa(lp49
S'cxx'
p50
aS'g++'
p51
aa(lp52
S'mode'
p53
aS'gcc'
p54
aatp55
Rp56
aa(lp57
S'contentshell'
p58
ag8
((lp59
(lp60
g18
ag58
aa(lp61
S'source'
p62
aS'chromium/src'
p63
aatp64
Rp65
aa(lp66
S'hsw'
p67
ag8
((lp68
(lp69
g18
ag67
aa(lp70
S'machine'
p71
aS'1'
p72
aa(lp73
S'hostname'
p74
aS'user@hsw-nuc.sh.intel.com'
p75
aa(lp76
S'repos'
p77
aS'/home/user/work/awfy/repos'
p78
aa(lp79
S'benchmarks'
p80
aS'/home/user/work/awfy/benchmarks'
p81
aa(lp82
S'driver'
p83
aS'/home/user/work/awfy/driver'
p84
aa(lp85
S'python'
p86
aS'python'
p87
aatp88
Rp89
aa(lp90
S'slm'
p91
ag8
((lp92
(lp93
g18
ag91
aa(lp94
S'machine'
p95
aS'2'
p96
aa(lp97
S'hostname'
p98
aS'user@atom-nuc.sh.intel.com'
p99
aa(lp100
S'repos'
p101
aS'/home/user/work/awfy/repos'
p102
aa(lp103
S'benchmarks'
p104
aS'/home/user/work/awfy/benchmarks'
p105
aa(lp106
S'driver'
p107
aS'/home/user/work/awfy/driver'
p108
aa(lp109
S'python'
p110
aS'python'
p111
aatp112
Rp113
aatp114
Rp115
sS'_dict'
p116
g8
sb.S'/home/user/work/awfy/repos'
p0
.S'/home/user/work/awfy/benchmarks'
p0
.S'/home/user/work/awfy/driver'
p0
.I900
.S'python'
p0
.(isubmitter
Submitter
p0
(dp1
S'machine'
p2
S'1'
p3
sS'runIds'
p4
(lp5
I48319
asS'urls'
p6
(lp7
S'http://user-awfy.sh.intel.com/awfy/UPDATE.php'
p8
asb.ccopy_reg
_reconstructor
p0
(cbuilders
NativeCompiler
p1
c__builtin__
object
p2
Ntp3
Rp4
(dp5
S'cc'
p6
S'gcc'
p7
sS'args'
p8
(lp9
S'-O2'
p10
asS'cxx'
p11
S'g++'
p12
sS'mode'
p13
S'gcc'
p14
sS'signature'
p15
Vg++ (Ubuntu 4.8.4-2ubuntu1~14.04) 4.8.4
p16
sS'cpu'
p17
S'x64'
p18
sb.(lp0
ccopy_reg
_reconstructor
p1
(c__main__
Mode
p2
c__builtin__
tuple
p3
(S'/home/user/work/awfy/repos/chromium/src/out/Release/content_shell'
p4
(lp5
NS'ContentShell-x64'
p6
V2124d950c2a2f908f7079f3d1c0f6e1ebdae4dd5
p7
tp8
tp9
Rp10
a.