(iConfigParser
RawConfigParser
p0
(dp1
S'_optcre'
p2
cre
_compile
p3
(S'(?P<option>[^:=\\s][^:=]*)\\s*(?P<vi>[:=])\\s*(?P<value>.*)$'
p4
I0
tp5
Rp6
sS'_defaults'
p7
ccollections
OrderedDict
p8
((lp9
tp10
Rp11
sS'_sections'
p12
g8
((lp13
(lp14
S'main'
p15
ag8
((lp16
(lp17
S'__name__'
p18
ag15
aa(lp19
S'repos'
p20
aS'/home/user/work/awfy2/repos'
p21
aa(lp22
S'benchmarks'
p23
aS'/home/user/work/awfy/benchmarks'
p24
aa(lp25
S'cpu'
p26
aS'x86'
p27
aa(lp28
S'machine'
p29
aS'0'
p30
aa(lp31
S'updateurl'
p32
aS'http://user-awfy.sh.intel.com/awfy/UPDATE.php'
p33
aa(lp34
S'slaves'
p35
aS'atom'
p36
aa(lp37
S'modes'
p38
aS'v8-default-x86'
p39
aatp40
Rp41
aa(lp42
S'native'
p43
ag8
((lp44
(lp45
g18
ag43
aa(lp46
S'options'
p47
aS'-O2'
p48
aa(lp49
S'cc'
p50
aS'gcc'
p51
aa(lp52
S'cxx'
p53
aS'g++'
p54
aa(lp55
S'mode'
p56
aS'gcc'
p57
aatp58
Rp59
aa(lp60
S'v8'
p61
ag8
((lp62
(lp63
g18
ag61
aa(lp64
S'source'
p65
aS'v8'
p66
aatp67
Rp68
aa(lp69
S'v8-default-x86'
p70
ag8
((lp71
(lp72
g18
ag70
aatp73
Rp74
aa(lp75
S'atom'
p76
ag8
((lp77
(lp78
g18
ag76
aa(lp79
S'machine'
p80
aS'2'
p81
aa(lp82
S'hostname'
p83
aS'atom-nuc.sh.intel.com'
p84
aa(lp85
S'repos'
p86
aS'/home/user/work/awfy/repos'
p87
aa(lp88
S'benchmarks'
p89
aS'/home/user/work/awfy/benchmarks'
p90
aa(lp91
S'driver'
p92
aS'/home/user/work/awfy/driver'
p93
aa(lp94
S'python'
p95
aS'python'
p96
aatp97
Rp98
aatp99
Rp100
sS'_dict'
p101
g8
sb.S'/home/user/work/awfy/repos'
p0
.S'/home/user/work/awfy/benchmarks'
p0
.S'/home/user/work/awfy/driver'
p0
.I900
.S'python'
p0
.(isubmitter
Submitter
p0
(dp1
S'machine'
p2
S'2'
p3
sS'runIds'
p4
(lp5
I0
asS'urls'
p6
(lp7
S'http://user-awfy.sh.intel.com/awfy/UPDATE.php'
p8
asb.ccopy_reg
_reconstructor
p0
(cbuilders
NativeCompiler
p1
c__builtin__
object
p2
Ntp3
Rp4
(dp5
S'cc'
p6
S'gcc'
p7
sS'args'
p8
(lp9
S'-O2'
p10
asS'cxx'
p11
S'g++'
p12
sS'mode'
p13
S'gcc'
p14
sS'signature'
p15
Vg++ (Ubuntu 5.4.0-6ubuntu1~16.04.2) 5.4.0 20160609
p16
sS'cpu'
p17
S'x86'
p18
sb.(lp0
ccopy_reg
_reconstructor
p1
(c__main__
Mode
p2
c__builtin__
tuple
p3
(S'/home/user/work/awfy2/repos/v8/out/ia32.release/d8'
p4
(lp5
S'--expose-gc'
p6
aNS'v8-default-x86'
p7
V46fc4f02bb08fe33b396ad26c301f652f0bf4ced
p8
tp9
tp10
Rp11
a.